; ModuleID = '55/845.c'
source_filename = "55/845.c"
target datalayout = "e-m:e-p270:32:32-p271:32:32-p272:64:64-i64:64-f80:128-n8:16:32:64-S128"
target triple = "x86_64-pc-linux-gnu"

@.str = private unnamed_addr constant [9 x i8] c"%d %s %d\00", align 1
@.str.1 = private unnamed_addr constant [3 x i8] c"0\0A\00", align 1
@.str.2 = private unnamed_addr constant [3 x i8] c"%c\00", align 1

; Function Attrs: noinline nounwind uwtable
define dso_local i32 @main() #0 {
  %1 = alloca i32, align 4
  %2 = alloca i32, align 4
  %3 = alloca i32, align 4
  %4 = alloca i32, align 4
  %5 = alloca i32, align 4
  %6 = alloca i32, align 4
  %7 = alloca i32, align 4
  %8 = alloca i32, align 4
  %9 = alloca i32, align 4
  %10 = alloca [40 x i8], align 16
  %11 = alloca [40 x i8], align 16
  %12 = alloca i8*, align 8
  %13 = alloca i64, align 8
  store i32 0, i32* %1, align 4
  store i32 0, i32* %5, align 4
  %14 = getelementptr inbounds [40 x i8], [40 x i8]* %10, i64 0, i64 0
  %15 = call i32 (i8*, ...) @__isoc99_scanf(i8* getelementptr inbounds ([9 x i8], [9 x i8]* @.str, i64 0, i64 0), i32* %7, i8* %14, i32* %8)
  %16 = getelementptr inbounds [40 x i8], [40 x i8]* %10, i64 0, i64 0
  %17 = call i64 @strlen(i8* %16) #4
  %18 = trunc i64 %17 to i32
  store i32 %18, i32* %2, align 4
  %19 = getelementptr inbounds [40 x i8], [40 x i8]* %10, i64 0, i64 0
  %20 = load i8, i8* %19, align 16
  %21 = sext i8 %20 to i32
  %22 = icmp eq i32 %21, 48
  br i1 %22, label %23, label %25

23:                                               ; preds = %0
  %24 = call i32 (i8*, ...) @printf(i8* getelementptr inbounds ([3 x i8], [3 x i8]* @.str.1, i64 0, i64 0))
  br label %179

25:                                               ; preds = %0
  store i32 0, i32* %3, align 4
  br label %26

26:                                               ; preds = %88, %25
  %27 = load i32, i32* %3, align 4
  %28 = load i32, i32* %2, align 4
  %29 = icmp slt i32 %27, %28
  br i1 %29, label %30, label %91

30:                                               ; preds = %26
  %31 = load i32, i32* %3, align 4
  %32 = sext i32 %31 to i64
  %33 = getelementptr inbounds [40 x i8], [40 x i8]* %10, i64 0, i64 %32
  %34 = load i8, i8* %33, align 1
  %35 = sext i8 %34 to i32
  %36 = icmp sge i32 %35, 65
  br i1 %36, label %37, label %52

37:                                               ; preds = %30
  %38 = load i32, i32* %3, align 4
  %39 = sext i32 %38 to i64
  %40 = getelementptr inbounds [40 x i8], [40 x i8]* %10, i64 0, i64 %39
  %41 = load i8, i8* %40, align 1
  %42 = sext i8 %41 to i32
  %43 = icmp sle i32 %42, 90
  br i1 %43, label %44, label %52

44:                                               ; preds = %37
  %45 = load i32, i32* %3, align 4
  %46 = sext i32 %45 to i64
  %47 = getelementptr inbounds [40 x i8], [40 x i8]* %10, i64 0, i64 %46
  %48 = load i8, i8* %47, align 1
  %49 = sext i8 %48 to i32
  %50 = sub nsw i32 %49, 65
  %51 = add nsw i32 %50, 10
  store i32 %51, i32* %4, align 4
  br label %82

52:                                               ; preds = %37, %30
  %53 = load i32, i32* %3, align 4
  %54 = sext i32 %53 to i64
  %55 = getelementptr inbounds [40 x i8], [40 x i8]* %10, i64 0, i64 %54
  %56 = load i8, i8* %55, align 1
  %57 = sext i8 %56 to i32
  %58 = icmp sge i32 %57, 97
  br i1 %58, label %59, label %74

59:                                               ; preds = %52
  %60 = load i32, i32* %3, align 4
  %61 = sext i32 %60 to i64
  %62 = getelementptr inbounds [40 x i8], [40 x i8]* %10, i64 0, i64 %61
  %63 = load i8, i8* %62, align 1
  %64 = sext i8 %63 to i32
  %65 = icmp sle i32 %64, 122
  br i1 %65, label %66, label %74

66:                                               ; preds = %59
  %67 = load i32, i32* %3, align 4
  %68 = sext i32 %67 to i64
  %69 = getelementptr inbounds [40 x i8], [40 x i8]* %10, i64 0, i64 %68
  %70 = load i8, i8* %69, align 1
  %71 = sext i8 %70 to i32
  %72 = sub nsw i32 %71, 97
  %73 = add nsw i32 %72, 10
  store i32 %73, i32* %4, align 4
  br label %81

74:                                               ; preds = %59, %52
  %75 = load i32, i32* %3, align 4
  %76 = sext i32 %75 to i64
  %77 = getelementptr inbounds [40 x i8], [40 x i8]* %10, i64 0, i64 %76
  %78 = load i8, i8* %77, align 1
  %79 = sext i8 %78 to i32
  %80 = sub nsw i32 %79, 48
  store i32 %80, i32* %4, align 4
  br label %81

81:                                               ; preds = %74, %66
  br label %82

82:                                               ; preds = %81, %44
  %83 = load i32, i32* %5, align 4
  %84 = load i32, i32* %7, align 4
  %85 = mul nsw i32 %83, %84
  %86 = load i32, i32* %4, align 4
  %87 = add nsw i32 %85, %86
  store i32 %87, i32* %5, align 4
  br label %88

88:                                               ; preds = %82
  %89 = load i32, i32* %3, align 4
  %90 = add nsw i32 %89, 1
  store i32 %90, i32* %3, align 4
  br label %26

91:                                               ; preds = %26
  store i32 0, i32* %2, align 4
  %92 = load i32, i32* %5, align 4
  store i32 %92, i32* %9, align 4
  br label %93

93:                                               ; preds = %107, %91
  %94 = load i32, i32* %9, align 4
  %95 = icmp ne i32 %94, 0
  br i1 %95, label %96, label %110

96:                                               ; preds = %93
  %97 = load i32, i32* %9, align 4
  %98 = load i32, i32* %8, align 4
  %99 = srem i32 %97, %98
  %100 = trunc i32 %99 to i8
  %101 = load i32, i32* %2, align 4
  %102 = sext i32 %101 to i64
  %103 = getelementptr inbounds [40 x i8], [40 x i8]* %11, i64 0, i64 %102
  store i8 %100, i8* %103, align 1
  %104 = load i32, i32* %9, align 4
  %105 = load i32, i32* %8, align 4
  %106 = sdiv i32 %104, %105
  store i32 %106, i32* %9, align 4
  br label %107

107:                                              ; preds = %96
  %108 = load i32, i32* %2, align 4
  %109 = add nsw i32 %108, 1
  store i32 %109, i32* %2, align 4
  br label %93

110:                                              ; preds = %93
  %111 = load i32, i32* %2, align 4
  %112 = sext i32 %111 to i64
  %113 = getelementptr inbounds [40 x i8], [40 x i8]* %11, i64 0, i64 %112
  store i8 48, i8* %113, align 1
  %114 = load i32, i32* %2, align 4
  %115 = zext i32 %114 to i64
  %116 = call i8* @llvm.stacksave()
  store i8* %116, i8** %12, align 8
  %117 = alloca i8, i64 %115, align 16
  store i64 %115, i64* %13, align 8
  store i32 0, i32* %3, align 4
  br label %118

118:                                              ; preds = %159, %110
  %119 = load i32, i32* %3, align 4
  %120 = load i32, i32* %2, align 4
  %121 = icmp slt i32 %119, %120
  br i1 %121, label %122, label %162

122:                                              ; preds = %118
  %123 = load i32, i32* %3, align 4
  %124 = sext i32 %123 to i64
  %125 = getelementptr inbounds [40 x i8], [40 x i8]* %11, i64 0, i64 %124
  %126 = load i8, i8* %125, align 1
  %127 = sext i8 %126 to i32
  %128 = icmp sgt i32 %127, 9
  br i1 %128, label %129, label %144

129:                                              ; preds = %122
  %130 = load i32, i32* %3, align 4
  %131 = sext i32 %130 to i64
  %132 = getelementptr inbounds [40 x i8], [40 x i8]* %11, i64 0, i64 %131
  %133 = load i8, i8* %132, align 1
  %134 = sext i8 %133 to i32
  %135 = add nsw i32 %134, 65
  %136 = sub nsw i32 %135, 10
  %137 = trunc i32 %136 to i8
  %138 = load i32, i32* %2, align 4
  %139 = load i32, i32* %3, align 4
  %140 = sub nsw i32 %138, %139
  %141 = sub nsw i32 %140, 1
  %142 = sext i32 %141 to i64
  %143 = getelementptr inbounds i8, i8* %117, i64 %142
  store i8 %137, i8* %143, align 1
  br label %158

144:                                              ; preds = %122
  %145 = load i32, i32* %3, align 4
  %146 = sext i32 %145 to i64
  %147 = getelementptr inbounds [40 x i8], [40 x i8]* %11, i64 0, i64 %146
  %148 = load i8, i8* %147, align 1
  %149 = sext i8 %148 to i32
  %150 = add nsw i32 %149, 48
  %151 = trunc i32 %150 to i8
  %152 = load i32, i32* %2, align 4
  %153 = load i32, i32* %3, align 4
  %154 = sub nsw i32 %152, %153
  %155 = sub nsw i32 %154, 1
  %156 = sext i32 %155 to i64
  %157 = getelementptr inbounds i8, i8* %117, i64 %156
  store i8 %151, i8* %157, align 1
  br label %158

158:                                              ; preds = %144, %129
  br label %159

159:                                              ; preds = %158
  %160 = load i32, i32* %3, align 4
  %161 = add nsw i32 %160, 1
  store i32 %161, i32* %3, align 4
  br label %118

162:                                              ; preds = %118
  store i32 0, i32* %3, align 4
  br label %163

163:                                              ; preds = %174, %162
  %164 = load i32, i32* %3, align 4
  %165 = load i32, i32* %2, align 4
  %166 = icmp slt i32 %164, %165
  br i1 %166, label %167, label %177

167:                                              ; preds = %163
  %168 = load i32, i32* %3, align 4
  %169 = sext i32 %168 to i64
  %170 = getelementptr inbounds i8, i8* %117, i64 %169
  %171 = load i8, i8* %170, align 1
  %172 = sext i8 %171 to i32
  %173 = call i32 (i8*, ...) @printf(i8* getelementptr inbounds ([3 x i8], [3 x i8]* @.str.2, i64 0, i64 0), i32 %172)
  br label %174

174:                                              ; preds = %167
  %175 = load i32, i32* %3, align 4
  %176 = add nsw i32 %175, 1
  store i32 %176, i32* %3, align 4
  br label %163

177:                                              ; preds = %163
  %178 = load i8*, i8** %12, align 8
  call void @llvm.stackrestore(i8* %178)
  br label %179

179:                                              ; preds = %177, %23
  %180 = call i32 @getchar()
  %181 = call i32 @getchar()
  %182 = load i32, i32* %1, align 4
  ret i32 %182
}

declare dso_local i32 @__isoc99_scanf(i8*, ...) #1

; Function Attrs: nounwind readonly
declare dso_local i64 @strlen(i8*) #2

declare dso_local i32 @printf(i8*, ...) #1

; Function Attrs: nounwind
declare i8* @llvm.stacksave() #3

; Function Attrs: nounwind
declare void @llvm.stackrestore(i8*) #3

declare dso_local i32 @getchar() #1


!llvm.module.flags = !{!0}
!llvm.ident = !{!1}

!0 = !{i32 1, !"wchar_size", i32 4}
!1 = !{!"clang version 10.0.0-4ubuntu1 "}
